; Function Attrs: nounwind uwtable
define noalias noundef ptr @Ssw_MatchingPairs(ptr noundef readonly captures(none) %0, ptr readnone captures(none) %1) local_unnamed_addr #1 {
  %3 = getelementptr i8, ptr %0, i64 32
  %.val16 = load ptr, ptr %3, align 8, !tbaa !28
  %4 = getelementptr i8, ptr %0, i64 156
  %.val17 = load i32, ptr %4, align 4, !tbaa !62
  %5 = getelementptr i8, ptr %.val16, i64 4
  %.val16.val = load i32, ptr %5, align 4, !tbaa !44
  %6 = sub nsw i32 %.val16.val, %.val17
  %7 = shl nsw i32 %6, 1
  %8 = tail call noalias dereferenceable_or_null(16) ptr @malloc(i64 noundef 16) #14
  %9 = add i32 %7, -1
  %or.cond.i = icmp ult i32 %9, 15
  %spec.store.select.i = select i1 %or.cond.i, i32 16, i32 %7
  %10 = getelementptr inbounds nuw i8, ptr %8, i64 4
  store i32 0, ptr %10, align 4, !tbaa !11
  store i32 %spec.store.select.i, ptr %8, align 8, !tbaa !14
  %.not.i = icmp eq i32 %spec.store.select.i, 0
  br i1 %.not.i, label %Vec_IntAlloc.exit, label %11

11:                                               ; preds = %2
  %12 = sext i32 %spec.store.select.i to i64
  %13 = shl nsw i64 %12, 2
  %14 = tail call noalias ptr @malloc(i64 noundef %13) #14
  br label %Vec_IntAlloc.exit

Vec_IntAlloc.exit:                                ; preds = %2, %11
  %15 = phi ptr [ %14, %11 ], [ null, %2 ]
  %16 = getelementptr inbounds nuw i8, ptr %8, i64 8
  store ptr %15, ptr %16, align 8, !tbaa !15
  %17 = icmp sgt i32 %.val16.val, 0
  br i1 %17, label %.lr.ph, label %.critedge

.lr.ph:                                           ; preds = %Vec_IntAlloc.exit, %78
  %18 = phi ptr [ %79, %78 ], [ %.val16, %Vec_IntAlloc.exit ]
  %.pre.i2030 = phi ptr [ %.pre.i2031, %78 ], [ %15, %Vec_IntAlloc.exit ]
  %19 = phi ptr [ %.pre.i29, %78 ], [ %15, %Vec_IntAlloc.exit ]
  %indvars.iv = phi i64 [ %indvars.iv.next, %78 ], [ 0, %Vec_IntAlloc.exit ]
  %20 = getelementptr i8, ptr %18, i64 8
  %.val = load ptr, ptr %20, align 8, !tbaa !30
  %21 = getelementptr inbounds nuw ptr, ptr %.val, i64 %indvars.iv
  %22 = load ptr, ptr %21, align 8, !tbaa !32
  %23 = icmp eq ptr %22, null
  br i1 %23, label %78, label %24

24:                                               ; preds = %.lr.ph
  %25 = getelementptr i8, ptr %22, i64 24
  %.val15 = load i64, ptr %25, align 8
  %26 = and i64 %.val15, 7
  %.not = icmp eq i64 %26, 3
  br i1 %.not, label %78, label %27

27:                                               ; preds = %24
  %28 = getelementptr inbounds nuw i8, ptr %22, i64 40
  %29 = load ptr, ptr %28, align 8, !tbaa !3
  %30 = getelementptr inbounds nuw i8, ptr %22, i64 36
  %31 = load i32, ptr %30, align 4, !tbaa !6
  %32 = load i32, ptr %10, align 4, !tbaa !11
  %33 = load i32, ptr %8, align 8, !tbaa !14
  %34 = icmp eq i32 %32, %33
  br i1 %34, label %35, label %Vec_IntPush.exit

35:                                               ; preds = %27
  %36 = icmp slt i32 %32, 16
  br i1 %36, label %37, label %42

37:                                               ; preds = %35
  %.not9.i.i = icmp eq ptr %19, null
  br i1 %.not9.i.i, label %40, label %38

38:                                               ; preds = %37
  %39 = tail call dereferenceable_or_null(64) ptr @realloc(ptr noundef nonnull %19, i64 noundef 64) #13
  br label %Vec_IntPush.exit.sink.split

40:                                               ; preds = %37
  %41 = tail call noalias dereferenceable_or_null(64) ptr @malloc(i64 noundef 64) #14
  br label %Vec_IntPush.exit.sink.split

42:                                               ; preds = %35
  %43 = shl nuw nsw i32 %32, 1
  %.not9.i9.i = icmp eq ptr %19, null
  %44 = zext nneg i32 %43 to i64
  %45 = shl nuw nsw i64 %44, 2
  br i1 %.not9.i9.i, label %48, label %46

46:                                               ; preds = %42
  %47 = tail call ptr @realloc(ptr noundef nonnull %19, i64 noundef %45) #13
  br label %Vec_IntPush.exit.sink.split

48:                                               ; preds = %42
  %49 = tail call noalias ptr @malloc(i64 noundef %45) #14
  br label %Vec_IntPush.exit.sink.split

Vec_IntPush.exit.sink.split:                      ; preds = %46, %48, %38, %40
  %.sink35 = phi ptr [ %39, %38 ], [ %41, %40 ], [ %47, %46 ], [ %49, %48 ]
  %.sink = phi i32 [ 16, %38 ], [ 16, %40 ], [ %43, %46 ], [ %43, %48 ]
  store ptr %.sink35, ptr %16, align 8, !tbaa !15
  store i32 %.sink, ptr %8, align 8, !tbaa !14
  br label %Vec_IntPush.exit

Vec_IntPush.exit:                                 ; preds = %Vec_IntPush.exit.sink.split, %27
  %50 = phi ptr [ %.pre.i2030, %27 ], [ %.sink35, %Vec_IntPush.exit.sink.split ]
  %51 = phi ptr [ %19, %27 ], [ %.sink35, %Vec_IntPush.exit.sink.split ]
  %52 = add nsw i32 %32, 1
  store i32 %52, ptr %10, align 4, !tbaa !11
  %53 = sext i32 %32 to i64
  %54 = getelementptr inbounds i32, ptr %51, i64 %53
  store i32 %31, ptr %54, align 4, !tbaa !16
  %55 = getelementptr inbounds nuw i8, ptr %29, i64 36
  %56 = load i32, ptr %55, align 4, !tbaa !6
  %57 = load i32, ptr %10, align 4, !tbaa !11
  %58 = load i32, ptr %8, align 8, !tbaa !14
  %59 = icmp eq i32 %57, %58
  br i1 %59, label %60, label %Vec_IntPush.exit24

60:                                               ; preds = %Vec_IntPush.exit
  %61 = icmp slt i32 %57, 16
  br i1 %61, label %62, label %67

62:                                               ; preds = %60
  %.not9.i.i22 = icmp eq ptr %50, null
  br i1 %.not9.i.i22, label %65, label %63

63:                                               ; preds = %62
  %64 = tail call dereferenceable_or_null(64) ptr @realloc(ptr noundef nonnull %50, i64 noundef 64) #13
  br label %Vec_IntPush.exit24.sink.split

65:                                               ; preds = %62
  %66 = tail call noalias dereferenceable_or_null(64) ptr @malloc(i64 noundef 64) #14
  br label %Vec_IntPush.exit24.sink.split

67:                                               ; preds = %60
  %68 = shl nuw nsw i32 %57, 1
  %.not9.i9.i21 = icmp eq ptr %50, null
  %69 = zext nneg i32 %68 to i64
  %70 = shl nuw nsw i64 %69, 2
  br i1 %.not9.i9.i21, label %73, label %71

71:                                               ; preds = %67
  %72 = tail call ptr @realloc(ptr noundef nonnull %50, i64 noundef %70) #13
  br label %Vec_IntPush.exit24.sink.split

73:                                               ; preds = %67
  %74 = tail call noalias ptr @malloc(i64 noundef %70) #14
  br label %Vec_IntPush.exit24.sink.split

Vec_IntPush.exit24.sink.split:                    ; preds = %71, %73, %63, %65
  %.sink37 = phi ptr [ %64, %63 ], [ %66, %65 ], [ %72, %71 ], [ %74, %73 ]
  %.sink36 = phi i32 [ 16, %63 ], [ 16, %65 ], [ %68, %71 ], [ %68, %73 ]
  store ptr %.sink37, ptr %16, align 8, !tbaa !15
  store i32 %.sink36, ptr %8, align 8, !tbaa !14
  br label %Vec_IntPush.exit24

Vec_IntPush.exit24:                               ; preds = %Vec_IntPush.exit24.sink.split, %Vec_IntPush.exit
  %.pre.i2032 = phi ptr [ %50, %Vec_IntPush.exit ], [ %.sink37, %Vec_IntPush.exit24.sink.split ]
  %75 = add nsw i32 %57, 1
  store i32 %75, ptr %10, align 4, !tbaa !11
  %76 = sext i32 %57 to i64
  %77 = getelementptr inbounds i32, ptr %.pre.i2032, i64 %76
  store i32 %56, ptr %77, align 4, !tbaa !16
  %.pre = load ptr, ptr %3, align 8, !tbaa !28
  br label %78

78:                                               ; preds = %Vec_IntPush.exit24, %.lr.ph, %24
  %79 = phi ptr [ %.pre, %Vec_IntPush.exit24 ], [ %18, %.lr.ph ], [ %18, %24 ]
  %.pre.i2031 = phi ptr [ %.pre.i2032, %Vec_IntPush.exit24 ], [ %.pre.i2030, %.lr.ph ], [ %.pre.i2030, %24 ]
  %.pre.i29 = phi ptr [ %.pre.i2032, %Vec_IntPush.exit24 ], [ %19, %.lr.ph ], [ %19, %24 ]
  %indvars.iv.next = add nuw nsw i64 %indvars.iv, 1
  %80 = getelementptr i8, ptr %79, i64 4
  %.val14 = load i32, ptr %80, align 4, !tbaa !44
  %81 = sext i32 %.val14 to i64
  %82 = icmp slt i64 %indvars.iv.next, %81
  br i1 %82, label %.lr.ph, label %.critedge, !llvm.loop !63

.critedge:                                        ; preds = %78, %Vec_IntAlloc.exit
  ret ptr %8
}